target datalayout = "e-m:e-p270:32:32-p271:32:32-p272:64:64-i64:64-i128:128-f80:128-n8:16:32:64-S128"
target triple = "x86_64-pc-linux-gnu"

%struct._php_core_globals = type { i64, i8, i8, i8, i8, i8, i8, i8, i8, ptr, ptr, i64, i64, i64, ptr, ptr, ptr, ptr, ptr, i8, ptr, ptr, ptr, ptr, i64, ptr, ptr, ptr, ptr, ptr, ptr, ptr, %struct._arg_separators, ptr, %struct._zend_array, i16, i8, i8, %struct._zend_llist, [6 x %struct._zval_struct], i8, i8, i8, i8, i8, ptr, ptr, i64, [8 x i8], i8, i8, i8, i8, i8, i8, i32, i32, ptr, ptr, ptr, ptr, i64, i64, ptr, i64, ptr, ptr, i8, i8, i8, i8, i8, i8, i64, ptr, i64, i64 }
%struct._arg_separators = type { ptr, ptr }
%struct._zend_array = type { %struct._zend_refcounted_h, %union.anon.0, i32, %union.anon.1, i32, i32, i32, i32, i64, ptr }
%struct._zend_refcounted_h = type { i32, %union.anon }
%union.anon = type { i32 }
%union.anon.0 = type { i32 }
%union.anon.1 = type { ptr }
%struct._zend_llist = type { ptr, ptr, i64, i64, ptr, i8, ptr }
%struct._zval_struct = type { %union._zend_value, %union.anon.3, %union.anon.6 }
%union._zend_value = type { i64 }
%union.anon.3 = type { i32 }
%union.anon.6 = type { i32 }
%struct._sapi_globals_struct = type { ptr, %struct.sapi_request_info, %struct.sapi_headers_struct, i64, i8, i8, %struct.stat, ptr, ptr, ptr, i64, i32, i8, double, %struct._zend_array, %struct._zval_struct, %struct._zend_fcall_info_cache, %struct.sapi_request_parse_body_context }
%struct.sapi_request_info = type { ptr, ptr, ptr, i64, ptr, ptr, ptr, ptr, i8, i8, i8, ptr, ptr, ptr, ptr, ptr, ptr, ptr, i32, i32, ptr, i32 }
%struct.sapi_headers_struct = type { %struct._zend_llist, i32, i8, ptr, ptr }
%struct.stat = type { i64, i64, i64, i32, i32, i32, i32, i64, i64, i64, i64, %struct.timespec, %struct.timespec, %struct.timespec, [3 x i64] }
%struct.timespec = type { i64, i64 }
%struct._zend_fcall_info_cache = type { ptr, ptr, ptr, ptr, ptr }
%struct.sapi_request_parse_body_context = type { i8, [5 x %struct.anon.7] }
%struct.anon.7 = type { i8, i64 }
%struct._zend_executor_globals = type { %struct._zval_struct, %struct._zval_struct, [32 x ptr], ptr, ptr, %struct._zend_array, %struct._zend_array, ptr, i32, i8, %struct._zval_struct, i32, ptr, ptr, ptr, ptr, ptr, ptr, i64, ptr, ptr, i32, ptr, i32, i64, i32, i32, i32, i8, i8, %struct.zend_atomic_bool_s, %struct.zend_atomic_bool_s, ptr, i64, ptr, ptr, %struct._zend_array, %struct._zend_array, i32, i8, %struct._zval_struct, %struct._zval_struct, %struct._zend_stack, %struct._zend_stack, %struct._zend_stack, ptr, i32, i32, i64, ptr, ptr, ptr, %struct._zend_objects_store, %struct._zend_lazy_objects_store, ptr, ptr, ptr, [3 x %struct._zend_op], ptr, i8, i8, i64, i32, i32, ptr, [16 x %struct._HashTableIterator], ptr, %union._zend_function, %struct._zend_op, %struct._zend_array, i64, %struct.zend_get_gc_buffer, ptr, ptr, ptr, i64, i8, i32, ptr, ptr, i64, %struct._zend_call_stack, i64, i64, %struct._zend_strtod_state, [6 x ptr] }
%struct.zend_atomic_bool_s = type { i8 }
%struct._zend_stack = type { i32, i32, i32, ptr }
%struct._zend_objects_store = type { ptr, i32, i32, i32 }
%struct._zend_lazy_objects_store = type { %struct._zend_array }
%struct._HashTableIterator = type { ptr, i32, i32 }
%union._zend_function = type { %struct._zend_op_array }
%struct._zend_op_array = type { i8, [3 x i8], i32, ptr, ptr, ptr, i32, i32, ptr, ptr, ptr, ptr, i32, ptr, i32, i32, i32, ptr, ptr, ptr, ptr, ptr, i32, i32, ptr, ptr, ptr, i32, i32, i32, i32, ptr, ptr, [6 x ptr] }
%struct._zend_op = type { ptr, %union._znode_op, %union._znode_op, %union._znode_op, i32, i32, i8, i8, i8, i8 }
%union._znode_op = type { i32 }
%struct.zend_get_gc_buffer = type { ptr, ptr, ptr }
%struct._zend_call_stack = type { ptr, i64 }
%struct._zend_strtod_state = type { [8 x ptr], ptr, ptr }
%struct._zend_string = type { %struct._zend_refcounted_h, i64, i64, [1 x i8] }
%struct._zend_file_handle = type { %union.anon.9, ptr, ptr, i8, i8, i8, ptr, i64 }
%union.anon.9 = type { %struct._zend_stream }
%struct._zend_stream = type { ptr, i32, ptr, ptr, ptr }
%struct.__jmp_buf_tag = type { [8 x i64], i32, %struct.__sigset_t }
%struct.__sigset_t = type { [16 x i64] }

@core_globals = dso_local global %struct._php_core_globals zeroinitializer, align 8
@sapi_globals = external global %struct._sapi_globals_struct, align 8
@executor_globals = external global %struct._zend_executor_globals, align 8

; Function Attrs: nounwind uwtable
define dso_local i32 @php_execute_simple_script(ptr noundef %0, ptr noundef %1) #1 {
  %3 = alloca ptr, align 8
  %4 = alloca ptr, align 8
  %5 = alloca ptr, align 8
  %6 = alloca i8, align 1
  %7 = alloca ptr, align 8
  %8 = alloca [1 x %struct.__jmp_buf_tag], align 16
  %9 = alloca ptr, align 8
  %10 = alloca i32, align 4
  store ptr %0, ptr %3, align 8, !tbaa !107
  store ptr %1, ptr %4, align 8, !tbaa !105
  call void @llvm.lifetime.start.p0(i64 8, ptr %5) #18
  call void @llvm.lifetime.start.p0(i64 1, ptr %6) #18
  store i32 0, ptr getelementptr inbounds nuw (%struct._zend_executor_globals, ptr @executor_globals, i32 0, i32 11), align 8, !tbaa !214
  store i8 0, ptr %6, align 1, !tbaa !47
  br i1 false, label %11, label %13

11:                                               ; preds = %2
  %12 = call noalias ptr @_emalloc_large(i64 noundef 4096) #23
  br label %15

13:                                               ; preds = %2
  %14 = alloca i8, i64 4096, align 16
  br label %15

15:                                               ; preds = %13, %11
  %16 = phi ptr [ %12, %11 ], [ %14, %13 ]
  store ptr %16, ptr %5, align 8, !tbaa !14
  %17 = load ptr, ptr %5, align 8, !tbaa !14
  %18 = getelementptr inbounds i8, ptr %17, i64 0
  store i8 0, ptr %18, align 1, !tbaa !27
  call void @llvm.lifetime.start.p0(i64 8, ptr %7) #18
  %19 = load ptr, ptr getelementptr inbounds nuw (%struct._zend_executor_globals, ptr @executor_globals, i32 0, i32 7), align 8, !tbaa !125
  store ptr %19, ptr %7, align 8, !tbaa !126
  call void @llvm.lifetime.start.p0(i64 200, ptr %8) #18
  store ptr %8, ptr getelementptr inbounds nuw (%struct._zend_executor_globals, ptr @executor_globals, i32 0, i32 7), align 8, !tbaa !125
  %20 = getelementptr inbounds [1 x %struct.__jmp_buf_tag], ptr %8, i64 0, i64 0
  %21 = call i32 @__sigsetjmp(ptr noundef %20, i32 noundef 0) #20
  %22 = icmp eq i32 %21, 0
  br i1 %22, label %23, label %45

23:                                               ; preds = %15
  store i8 0, ptr getelementptr inbounds nuw (%struct._php_core_globals, ptr @core_globals, i32 0, i32 51), align 2, !tbaa !62
  %24 = load ptr, ptr %3, align 8, !tbaa !107
  %25 = getelementptr inbounds nuw %struct._zend_file_handle, ptr %24, i32 0, i32 1
  %26 = load ptr, ptr %25, align 8, !tbaa !111
  %27 = icmp ne ptr %26, null
  br i1 %27, label %28, label %41

28:                                               ; preds = %23
  %29 = load i32, ptr getelementptr inbounds nuw (%struct._sapi_globals_struct, ptr @sapi_globals, i32 0, i32 11), align 8, !tbaa !231
  %30 = and i32 %29, 1
  %31 = icmp ne i32 %30, 0
  br i1 %31, label %41, label %32

32:                                               ; preds = %28
  call void @llvm.lifetime.start.p0(i64 8, ptr %9) #18
  %33 = load ptr, ptr %5, align 8, !tbaa !14
  %34 = call ptr @getcwd(ptr noundef %33, i64 noundef 4095) #18
  store ptr %34, ptr %9, align 8, !tbaa !14
  call void @llvm.lifetime.end.p0(i64 8, ptr %9) #18
  %35 = load ptr, ptr %3, align 8, !tbaa !107
  %36 = getelementptr inbounds nuw %struct._zend_file_handle, ptr %35, i32 0, i32 1
  %37 = load ptr, ptr %36, align 8, !tbaa !111
  %38 = getelementptr inbounds nuw %struct._zend_string, ptr %37, i32 0, i32 3
  %39 = getelementptr inbounds [1 x i8], ptr %38, i64 0, i64 0
  %40 = call i32 @virtual_chdir_file(ptr noundef %39, ptr noundef @chdir)
  br label %41

41:                                               ; preds = %32, %28, %23
  %42 = load ptr, ptr %4, align 8, !tbaa !105
  %43 = load ptr, ptr %3, align 8, !tbaa !107
  %44 = call i32 (i32, ptr, i32, ...) @zend_execute_scripts(i32 noundef 8, ptr noundef %42, i32 noundef 1, ptr noundef %43)
  br label %45

45:                                               ; preds = %41, %15
  %46 = load ptr, ptr %7, align 8, !tbaa !126
  store ptr %46, ptr getelementptr inbounds nuw (%struct._zend_executor_globals, ptr @executor_globals, i32 0, i32 7), align 8, !tbaa !125
  call void @llvm.lifetime.end.p0(i64 200, ptr %8) #18
  call void @llvm.lifetime.end.p0(i64 8, ptr %7) #18
  %47 = load ptr, ptr %5, align 8, !tbaa !14
  %48 = getelementptr inbounds i8, ptr %47, i64 0
  %49 = load i8, ptr %48, align 1, !tbaa !27
  %50 = sext i8 %49 to i32
  %51 = icmp ne i32 %50, 0
  br i1 %51, label %52, label %55

52:                                               ; preds = %45
  call void @llvm.lifetime.start.p0(i64 4, ptr %10) #18
  %53 = load ptr, ptr %5, align 8, !tbaa !14
  %54 = call i32 @chdir(ptr noundef %53) #18
  store i32 %54, ptr %10, align 4, !tbaa !50
  call void @llvm.lifetime.end.p0(i64 4, ptr %10) #18
  br label %55

55:                                               ; preds = %52, %45
  br label %56

56:                                               ; preds = %55
  %57 = load i8, ptr %6, align 1, !tbaa !47, !range !48, !noundef !49
  %58 = trunc i8 %57 to i1
  %59 = xor i1 %58, true
  %60 = xor i1 %59, true
  %61 = zext i1 %60 to i32
  %62 = sext i32 %61 to i64
  %63 = call i64 @llvm.expect.i64(i64 %62, i64 0)
  %64 = icmp ne i64 %63, 0
  br i1 %64, label %65, label %67

65:                                               ; preds = %56
  %66 = load ptr, ptr %5, align 8, !tbaa !14
  call void @_efree(ptr noundef %66)
  br label %67

67:                                               ; preds = %65, %56
  br label %68

68:                                               ; preds = %67
  br label %69

69:                                               ; preds = %68
  %70 = load i32, ptr getelementptr inbounds nuw (%struct._zend_executor_globals, ptr @executor_globals, i32 0, i32 11), align 8, !tbaa !214
  call void @llvm.lifetime.end.p0(i64 1, ptr %6) #18
  call void @llvm.lifetime.end.p0(i64 8, ptr %5) #18
  ret i32 %70
}