; Function Attrs: nounwind uwtable
define dso_local i32 @php_execute_simple_script(ptr noundef %0, ptr noundef %1) local_unnamed_addr #2 {
  %3 = alloca [1 x %struct.__jmp_buf_tag], align 16
  store i32 0, ptr getelementptr inbounds nuw (i8, ptr @executor_globals, i64 448), align 8, !tbaa !199
  %4 = alloca [4096 x i8], align 16
  store i8 0, ptr %4, align 16, !tbaa !24
  %5 = load ptr, ptr getelementptr inbounds nuw (i8, ptr @executor_globals, i64 416), align 8, !tbaa !111
  call void @llvm.lifetime.start.p0(i64 200, ptr nonnull %3) #28
  store ptr %3, ptr getelementptr inbounds nuw (i8, ptr @executor_globals, i64 416), align 8, !tbaa !111
  %6 = call i32 @__sigsetjmp(ptr noundef nonnull %3, i32 noundef 0) #30
  %7 = icmp eq i32 %6, 0
  br i1 %7, label %8, label %.thread

.thread:                                          ; preds = %2
  store ptr %5, ptr getelementptr inbounds nuw (i8, ptr @executor_globals, i64 416), align 8, !tbaa !111
  call void @llvm.lifetime.end.p0(i64 200, ptr nonnull %3) #28
  br label %24

8:                                                ; preds = %2
  store i8 0, ptr getelementptr inbounds nuw (i8, ptr @core_globals, i64 482), align 2, !tbaa !54
  %9 = getelementptr inbounds nuw i8, ptr %0, i64 40
  %10 = load ptr, ptr %9, align 8, !tbaa !97
  %.not = icmp eq ptr %10, null
  br i1 %.not, label %19, label %11

11:                                               ; preds = %8
  %12 = load i32, ptr getelementptr inbounds nuw (i8, ptr @sapi_globals, i64 432), align 8, !tbaa !206
  %13 = and i32 %12, 1
  %.not10 = icmp eq i32 %13, 0
  br i1 %.not10, label %14, label %19

14:                                               ; preds = %11
  %15 = call ptr @getcwd(ptr noundef nonnull %4, i64 noundef 4095) #28
  %16 = load ptr, ptr %9, align 8, !tbaa !97
  %17 = getelementptr inbounds nuw i8, ptr %16, i64 24
  %18 = call i32 @virtual_chdir_file(ptr noundef nonnull %17, ptr noundef nonnull @chdir) #28
  br label %19

19:                                               ; preds = %8, %11, %14
  %20 = call i32 (i32, ptr, i32, ...) @zend_execute_scripts(i32 noundef 8, ptr noundef %1, i32 noundef 1, ptr noundef nonnull %0) #28
  %.pre = load i8, ptr %4, align 16, !tbaa !24
  %21 = icmp eq i8 %.pre, 0
  store ptr %5, ptr getelementptr inbounds nuw (i8, ptr @executor_globals, i64 416), align 8, !tbaa !111
  call void @llvm.lifetime.end.p0(i64 200, ptr nonnull %3) #28
  br i1 %21, label %24, label %22

22:                                               ; preds = %19
  %23 = call i32 @chdir(ptr noundef nonnull %4) #28
  br label %24

24:                                               ; preds = %.thread, %22, %19
  %25 = load i32, ptr getelementptr inbounds nuw (i8, ptr @executor_globals, i64 448), align 8, !tbaa !199
  ret i32 %25
}